target datalayout = "e-m:e-p270:32:32-p271:32:32-p272:64:64-i64:64-i128:128-f80:128-n8:16:32:64-S128"
target triple = "x86_64-pc-linux-gnu"

%"class.i18n::phonenumbers::StringPiece" = type { ptr, i64 }

; Function Attrs: mustprogress nounwind uwtable
define linkonce_odr dso_local noundef ptr @_ZNK4i18n12phonenumbers11StringPiece4dataEv(ptr noundef nonnull align 8 dereferenceable(16) %0) #2 comdat align 2 {
  %2 = alloca ptr, align 8
  store ptr %0, ptr %2, align 8, !tbaa !9
  %3 = load ptr, ptr %2, align 8
  %4 = getelementptr inbounds nuw %"class.i18n::phonenumbers::StringPiece", ptr %3, i32 0, i32 0
  %5 = load ptr, ptr %4, align 8, !tbaa !11
  ret ptr %5
}

; Function Attrs: mustprogress nounwind uwtable
define linkonce_odr dso_local noundef i64 @_ZNK4i18n12phonenumbers11StringPiece6lengthEv(ptr noundef nonnull align 8 dereferenceable(16) %0) #2 comdat align 2 {
  %2 = alloca ptr, align 8
  store ptr %0, ptr %2, align 8, !tbaa !9
  %3 = load ptr, ptr %2, align 8
  %4 = getelementptr inbounds nuw %"class.i18n::phonenumbers::StringPiece", ptr %3, i32 0, i32 1
  %5 = load i64, ptr %4, align 8, !tbaa !15
  ret i64 %5
}

; Function Attrs: inlinehint mustprogress uwtable
define internal void @_ZN4i18n12phonenumbersL16BuildLookupTableERKNS0_11StringPieceEPb(ptr noundef nonnull align 8 dereferenceable(16) %0, ptr noundef %1) #6 {
  %3 = alloca ptr, align 8
  %4 = alloca ptr, align 8
  %5 = alloca i64, align 8
  %6 = alloca ptr, align 8
  %7 = alloca i64, align 8
  store ptr %0, ptr %3, align 8, !tbaa !9
  store ptr %1, ptr %4, align 8, !tbaa !30
  call void @llvm.lifetime.start.p0(i64 8, ptr %5) #13
  %8 = load ptr, ptr %3, align 8, !tbaa !9
  %9 = call noundef i64 @_ZNK4i18n12phonenumbers11StringPiece6lengthEv(ptr noundef nonnull align 8 dereferenceable(16) %8)
  store i64 %9, ptr %5, align 8, !tbaa !17
  call void @llvm.lifetime.start.p0(i64 8, ptr %6) #13
  %10 = load ptr, ptr %3, align 8, !tbaa !9
  %11 = call noundef ptr @_ZNK4i18n12phonenumbers11StringPiece4dataEv(ptr noundef nonnull align 8 dereferenceable(16) %10)
  store ptr %11, ptr %6, align 8, !tbaa !16
  call void @llvm.lifetime.start.p0(i64 8, ptr %7) #13
  store i64 0, ptr %7, align 8, !tbaa !17
  br label %12

12:                                               ; preds = %25, %2
  %13 = load i64, ptr %7, align 8, !tbaa !17
  %14 = load i64, ptr %5, align 8, !tbaa !17
  %15 = icmp ult i64 %13, %14
  br i1 %15, label %17, label %16

16:                                               ; preds = %12
  call void @llvm.lifetime.end.p0(i64 8, ptr %7) #13
  br label %28

17:                                               ; preds = %12
  %18 = load ptr, ptr %4, align 8, !tbaa !30
  %19 = load ptr, ptr %6, align 8, !tbaa !16
  %20 = load i64, ptr %7, align 8, !tbaa !17
  %21 = getelementptr inbounds nuw i8, ptr %19, i64 %20
  %22 = load i8, ptr %21, align 1, !tbaa !22
  %23 = zext i8 %22 to i64
  %24 = getelementptr inbounds nuw i8, ptr %18, i64 %23
  store i8 1, ptr %24, align 1, !tbaa !25
  br label %25

25:                                               ; preds = %17
  %26 = load i64, ptr %7, align 8, !tbaa !17
  %27 = add i64 %26, 1
  store i64 %27, ptr %7, align 8, !tbaa !17
  br label %12, !llvm.loop !32

28:                                               ; preds = %16
  call void @llvm.lifetime.end.p0(i64 8, ptr %6) #13
  call void @llvm.lifetime.end.p0(i64 8, ptr %5) #13
  ret void
}

; Function Attrs: mustprogress uwtable
define dso_local noundef i64 @_ZNK4i18n12phonenumbers11StringPiece16find_last_not_ofEcm(ptr noundef nonnull align 8 dereferenceable(16) %0, i8 noundef signext %1, i64 noundef %2) #0 align 2 {
  %4 = alloca i64, align 8
  %5 = alloca ptr, align 8
  %6 = alloca i8, align 1
  %7 = alloca i64, align 8
  %8 = alloca i64, align 8
  %9 = alloca i64, align 8
  %10 = alloca i32, align 4
  store ptr %0, ptr %5, align 8, !tbaa !9
  store i8 %1, ptr %6, align 1, !tbaa !22
  store i64 %2, ptr %7, align 8, !tbaa !17
  %11 = load ptr, ptr %5, align 8
  %12 = getelementptr inbounds nuw %"class.i18n::phonenumbers::StringPiece", ptr %11, i32 0, i32 1
  %13 = load i64, ptr %12, align 8, !tbaa !15
  %14 = icmp eq i64 %13, 0
  br i1 %14, label %15, label %16

15:                                               ; preds = %3
  store i64 -1, ptr %4, align 8
  br label %45

16:                                               ; preds = %3
  call void @llvm.lifetime.start.p0(i64 8, ptr %8) #13
  call void @llvm.lifetime.start.p0(i64 8, ptr %9) #13
  %17 = getelementptr inbounds nuw %"class.i18n::phonenumbers::StringPiece", ptr %11, i32 0, i32 1
  %18 = load i64, ptr %17, align 8, !tbaa !15
  %19 = sub i64 %18, 1
  store i64 %19, ptr %9, align 8, !tbaa !17
  %20 = call noundef nonnull align 8 dereferenceable(8) ptr @_ZSt3minImERKT_S2_S2_(ptr noundef nonnull align 8 dereferenceable(8) %7, ptr noundef nonnull align 8 dereferenceable(8) %9)
  %21 = load i64, ptr %20, align 8, !tbaa !17
  call void @llvm.lifetime.end.p0(i64 8, ptr %9) #13
  store i64 %21, ptr %8, align 8, !tbaa !17
  br label %22

22:                                               ; preds = %39, %16
  %23 = getelementptr inbounds nuw %"class.i18n::phonenumbers::StringPiece", ptr %11, i32 0, i32 0
  %24 = load ptr, ptr %23, align 8, !tbaa !11
  %25 = load i64, ptr %8, align 8, !tbaa !17
  %26 = getelementptr inbounds nuw i8, ptr %24, i64 %25
  %27 = load i8, ptr %26, align 1, !tbaa !22
  %28 = sext i8 %27 to i32
  %29 = load i8, ptr %6, align 1, !tbaa !22
  %30 = sext i8 %29 to i32
  %31 = icmp ne i32 %28, %30
  br i1 %31, label %32, label %34

32:                                               ; preds = %22
  %33 = load i64, ptr %8, align 8, !tbaa !17
  store i64 %33, ptr %4, align 8
  store i32 1, ptr %10, align 4
  br label %42

34:                                               ; preds = %22
  %35 = load i64, ptr %8, align 8, !tbaa !17
  %36 = icmp eq i64 %35, 0
  br i1 %36, label %37, label %38

37:                                               ; preds = %34
  store i32 2, ptr %10, align 4
  br label %42

38:                                               ; preds = %34
  br label %39

39:                                               ; preds = %38
  %40 = load i64, ptr %8, align 8, !tbaa !17
  %41 = add i64 %40, -1
  store i64 %41, ptr %8, align 8, !tbaa !17
  br label %22, !llvm.loop !37

42:                                               ; preds = %37, %32
  call void @llvm.lifetime.end.p0(i64 8, ptr %8) #13
  %43 = load i32, ptr %10, align 4
  switch i32 %43, label %47 [
    i32 1, label %45
    i32 2, label %44
  ]

44:                                               ; preds = %42
  store i64 -1, ptr %4, align 8
  br label %45

45:                                               ; preds = %44, %42, %15
  %46 = load i64, ptr %4, align 8
  ret i64 %46

47:                                               ; preds = %42
  unreachable
}

; Function Attrs: inlinehint mustprogress nounwind uwtable
define linkonce_odr dso_local noundef nonnull align 8 dereferenceable(8) ptr @_ZSt3minImERKT_S2_S2_(ptr noundef nonnull align 8 dereferenceable(8) %0, ptr noundef nonnull align 8 dereferenceable(8) %1) #4 comdat {
  %3 = alloca ptr, align 8
  %4 = alloca ptr, align 8
  %5 = alloca ptr, align 8
  store ptr %0, ptr %4, align 8, !tbaa !20
  store ptr %1, ptr %5, align 8, !tbaa !20
  %6 = load ptr, ptr %5, align 8, !tbaa !20
  %7 = load i64, ptr %6, align 8, !tbaa !17
  %8 = load ptr, ptr %4, align 8, !tbaa !20
  %9 = load i64, ptr %8, align 8, !tbaa !17
  %10 = icmp ult i64 %7, %9
  br i1 %10, label %11, label %13

11:                                               ; preds = %2
  %12 = load ptr, ptr %5, align 8, !tbaa !20
  store ptr %12, ptr %3, align 8
  br label %15

13:                                               ; preds = %2
  %14 = load ptr, ptr %4, align 8, !tbaa !20
  store ptr %14, ptr %3, align 8
  br label %15

15:                                               ; preds = %13, %11
  %16 = load ptr, ptr %3, align 8
  ret ptr %16
}

; Function Attrs: mustprogress uwtable
define dso_local noundef i64 @_ZNK4i18n12phonenumbers11StringPiece16find_last_not_ofERKS1_m(ptr noundef nonnull align 8 dereferenceable(16) %0, ptr noundef nonnull align 8 dereferenceable(16) %1, i64 noundef %2) #0 align 2 {
  %4 = alloca i64, align 8
  %5 = alloca ptr, align 8
  %6 = alloca ptr, align 8
  %7 = alloca i64, align 8
  %8 = alloca i64, align 8
  %9 = alloca i64, align 8
  %10 = alloca i32, align 4
  %11 = alloca [256 x i8], align 16
  store ptr %0, ptr %5, align 8, !tbaa !9
  store ptr %1, ptr %6, align 8, !tbaa !9
  store i64 %2, ptr %7, align 8, !tbaa !17
  %12 = load ptr, ptr %5, align 8
  %13 = getelementptr inbounds nuw %"class.i18n::phonenumbers::StringPiece", ptr %12, i32 0, i32 1
  %14 = load i64, ptr %13, align 8, !tbaa !15
  %15 = icmp eq i64 %14, 0
  br i1 %15, label %16, label %17

16:                                               ; preds = %3
  store i64 -1, ptr %4, align 8
  br label %68

17:                                               ; preds = %3
  call void @llvm.lifetime.start.p0(i64 8, ptr %8) #13
  call void @llvm.lifetime.start.p0(i64 8, ptr %9) #13
  %18 = getelementptr inbounds nuw %"class.i18n::phonenumbers::StringPiece", ptr %12, i32 0, i32 1
  %19 = load i64, ptr %18, align 8, !tbaa !15
  %20 = sub i64 %19, 1
  store i64 %20, ptr %9, align 8, !tbaa !17
  %21 = call noundef nonnull align 8 dereferenceable(8) ptr @_ZSt3minImERKT_S2_S2_(ptr noundef nonnull align 8 dereferenceable(8) %7, ptr noundef nonnull align 8 dereferenceable(8) %9)
  %22 = load i64, ptr %21, align 8, !tbaa !17
  call void @llvm.lifetime.end.p0(i64 8, ptr %9) #13
  store i64 %22, ptr %8, align 8, !tbaa !17
  %23 = load ptr, ptr %6, align 8, !tbaa !9
  %24 = getelementptr inbounds nuw %"class.i18n::phonenumbers::StringPiece", ptr %23, i32 0, i32 1
  %25 = load i64, ptr %24, align 8, !tbaa !15
  %26 = icmp eq i64 %25, 0
  br i1 %26, label %27, label %29

27:                                               ; preds = %17
  %28 = load i64, ptr %8, align 8, !tbaa !17
  store i64 %28, ptr %4, align 8
  store i32 1, ptr %10, align 4
  br label %67

29:                                               ; preds = %17
  %30 = load ptr, ptr %6, align 8, !tbaa !9
  %31 = getelementptr inbounds nuw %"class.i18n::phonenumbers::StringPiece", ptr %30, i32 0, i32 1
  %32 = load i64, ptr %31, align 8, !tbaa !15
  %33 = icmp eq i64 %32, 1
  br i1 %33, label %34, label %42

34:                                               ; preds = %29
  %35 = load ptr, ptr %6, align 8, !tbaa !9
  %36 = getelementptr inbounds nuw %"class.i18n::phonenumbers::StringPiece", ptr %35, i32 0, i32 0
  %37 = load ptr, ptr %36, align 8, !tbaa !11
  %38 = getelementptr inbounds i8, ptr %37, i64 0
  %39 = load i8, ptr %38, align 1, !tbaa !22
  %40 = load i64, ptr %7, align 8, !tbaa !17
  %41 = call noundef i64 @_ZNK4i18n12phonenumbers11StringPiece16find_last_not_ofEcm(ptr noundef nonnull align 8 dereferenceable(16) %12, i8 noundef signext %39, i64 noundef %40)
  store i64 %41, ptr %4, align 8
  store i32 1, ptr %10, align 4
  br label %67

42:                                               ; preds = %29
  call void @llvm.lifetime.start.p0(i64 256, ptr %11) #13
  call void @llvm.memset.p0.i64(ptr align 16 %11, i8 0, i64 256, i1 false)
  %43 = load ptr, ptr %6, align 8, !tbaa !9
  %44 = getelementptr inbounds [256 x i8], ptr %11, i64 0, i64 0
  call void @_ZN4i18n12phonenumbersL16BuildLookupTableERKNS0_11StringPieceEPb(ptr noundef nonnull align 8 dereferenceable(16) %43, ptr noundef %44)
  br label %45

45:                                               ; preds = %62, %42
  %46 = getelementptr inbounds nuw %"class.i18n::phonenumbers::StringPiece", ptr %12, i32 0, i32 0
  %47 = load ptr, ptr %46, align 8, !tbaa !11
  %48 = load i64, ptr %8, align 8, !tbaa !17
  %49 = getelementptr inbounds nuw i8, ptr %47, i64 %48
  %50 = load i8, ptr %49, align 1, !tbaa !22
  %51 = zext i8 %50 to i64
  %52 = getelementptr inbounds nuw [256 x i8], ptr %11, i64 0, i64 %51
  %53 = load i8, ptr %52, align 1, !tbaa !25, !range !27, !noundef !28
  %54 = trunc i8 %53 to i1
  br i1 %54, label %57, label %55

55:                                               ; preds = %45
  %56 = load i64, ptr %8, align 8, !tbaa !17
  store i64 %56, ptr %4, align 8
  store i32 1, ptr %10, align 4
  br label %66

57:                                               ; preds = %45
  %58 = load i64, ptr %8, align 8, !tbaa !17
  %59 = icmp eq i64 %58, 0
  br i1 %59, label %60, label %61

60:                                               ; preds = %57
  br label %65

61:                                               ; preds = %57
  br label %62

62:                                               ; preds = %61
  %63 = load i64, ptr %8, align 8, !tbaa !17
  %64 = add i64 %63, -1
  store i64 %64, ptr %8, align 8, !tbaa !17
  br label %45, !llvm.loop !36

65:                                               ; preds = %60
  store i64 -1, ptr %4, align 8
  store i32 1, ptr %10, align 4
  br label %66

66:                                               ; preds = %65, %55
  call void @llvm.lifetime.end.p0(i64 256, ptr %11) #13
  br label %67

67:                                               ; preds = %66, %34, %27
  call void @llvm.lifetime.end.p0(i64 8, ptr %8) #13
  br label %68

68:                                               ; preds = %67, %16
  %69 = load i64, ptr %4, align 8
  ret i64 %69
}