; Function Attrs: mustprogress nofree norecurse nosync nounwind willreturn memory(read, inaccessiblemem: none) uwtable
define dso_local noundef i64 @_ZNK4i18n12phonenumbers11StringPiece16find_last_not_ofERKS1_m(ptr noundef nonnull readonly align 8 captures(none) dereferenceable(16) %0, ptr noundef nonnull readonly align 8 captures(none) dereferenceable(16) %1, i64 noundef %2) local_unnamed_addr #6 align 2 {
  %4 = alloca [256 x i8], align 16
  %5 = getelementptr inbounds nuw i8, ptr %0, i64 8
  %6 = load i64, ptr %5, align 8, !tbaa !11
  %7 = icmp eq i64 %6, 0
  br i1 %7, label %_ZNK4i18n12phonenumbers11StringPiece16find_last_not_ofEcm.exit, label %8

8:                                                ; preds = %3
  %9 = add i64 %6, -1
  %.sroa.speculated = tail call i64 @llvm.umin.i64(i64 %9, i64 %2)
  %10 = getelementptr inbounds nuw i8, ptr %1, i64 8
  %11 = load i64, ptr %10, align 8, !tbaa !11
  switch i64 %11, label %23 [
    i64 0, label %_ZNK4i18n12phonenumbers11StringPiece16find_last_not_ofEcm.exit
    i64 1, label %12
  ]

12:                                               ; preds = %8
  %13 = load ptr, ptr %1, align 8, !tbaa !4
  %14 = load i8, ptr %13, align 1, !tbaa !15
  %15 = load ptr, ptr %0, align 8, !tbaa !4
  %16 = getelementptr inbounds nuw i8, ptr %15, i64 %.sroa.speculated
  %17 = load i8, ptr %16, align 1, !tbaa !15
  %.not.not12.i = icmp eq i8 %17, %14
  br i1 %.not.not12.i, label %.lr.ph.i, label %_ZNK4i18n12phonenumbers11StringPiece16find_last_not_ofEcm.exit

.lr.ph.i:                                         ; preds = %12, %19
  %.0713.i = phi i64 [ %20, %19 ], [ %.sroa.speculated, %12 ]
  %18 = icmp eq i64 %.0713.i, 0
  br i1 %18, label %_ZNK4i18n12phonenumbers11StringPiece16find_last_not_ofEcm.exit, label %19

19:                                               ; preds = %.lr.ph.i
  %20 = add i64 %.0713.i, -1
  %21 = getelementptr inbounds nuw i8, ptr %15, i64 %20
  %22 = load i8, ptr %21, align 1, !tbaa !15
  %.not.not.i = icmp eq i8 %22, %14
  br i1 %.not.not.i, label %.lr.ph.i, label %_ZNK4i18n12phonenumbers11StringPiece16find_last_not_ofEcm.exit, !llvm.loop !30

23:                                               ; preds = %8
  call void @llvm.lifetime.start.p0(i64 256, ptr nonnull %4) #13
  call void @llvm.memset.p0.i64(ptr noundef nonnull align 16 dereferenceable(256) %4, i8 0, i64 256, i1 false)
  %.val = load ptr, ptr %1, align 8, !tbaa !4
  br label %.lr.ph.i13

.lr.ph.i13:                                       ; preds = %23, %.lr.ph.i13
  %.01.i = phi i64 [ %28, %.lr.ph.i13 ], [ 0, %23 ]
  %24 = getelementptr inbounds nuw i8, ptr %.val, i64 %.01.i
  %25 = load i8, ptr %24, align 1, !tbaa !15
  %26 = zext i8 %25 to i64
  %27 = getelementptr inbounds nuw i8, ptr %4, i64 %26
  store i8 1, ptr %27, align 1, !tbaa !21
  %28 = add nuw i64 %.01.i, 1
  %exitcond.not.i = icmp eq i64 %28, %11
  br i1 %exitcond.not.i, label %_ZN4i18n12phonenumbersL16BuildLookupTableERKNS0_11StringPieceEPb.exit.preheader, label %.lr.ph.i13, !llvm.loop !23

_ZN4i18n12phonenumbersL16BuildLookupTableERKNS0_11StringPieceEPb.exit.preheader: ; preds = %.lr.ph.i13
  %29 = load ptr, ptr %0, align 8, !tbaa !4
  %30 = getelementptr inbounds nuw i8, ptr %29, i64 %.sroa.speculated
  %31 = load i8, ptr %30, align 1, !tbaa !15
  %32 = zext i8 %31 to i64
  %33 = getelementptr inbounds nuw [256 x i8], ptr %4, i64 0, i64 %32
  %34 = load i8, ptr %33, align 1, !tbaa !21, !range !24, !noundef !25
  %35 = trunc nuw i8 %34 to i1
  br i1 %35, label %.lr.ph, label %._crit_edge

.lr.ph:                                           ; preds = %_ZN4i18n12phonenumbersL16BuildLookupTableERKNS0_11StringPieceEPb.exit.preheader, %_ZN4i18n12phonenumbersL16BuildLookupTableERKNS0_11StringPieceEPb.exit
  %.018 = phi i64 [ %37, %_ZN4i18n12phonenumbersL16BuildLookupTableERKNS0_11StringPieceEPb.exit ], [ %.sroa.speculated, %_ZN4i18n12phonenumbersL16BuildLookupTableERKNS0_11StringPieceEPb.exit.preheader ]
  %36 = icmp eq i64 %.018, 0
  br i1 %36, label %._crit_edge, label %_ZN4i18n12phonenumbersL16BuildLookupTableERKNS0_11StringPieceEPb.exit

_ZN4i18n12phonenumbersL16BuildLookupTableERKNS0_11StringPieceEPb.exit: ; preds = %.lr.ph
  %37 = add i64 %.018, -1
  %38 = getelementptr inbounds nuw i8, ptr %29, i64 %37
  %39 = load i8, ptr %38, align 1, !tbaa !15
  %40 = zext i8 %39 to i64
  %41 = getelementptr inbounds nuw [256 x i8], ptr %4, i64 0, i64 %40
  %42 = load i8, ptr %41, align 1, !tbaa !21, !range !24, !noundef !25
  %43 = trunc nuw i8 %42 to i1
  br i1 %43, label %.lr.ph, label %._crit_edge, !llvm.loop !31

._crit_edge:                                      ; preds = %_ZN4i18n12phonenumbersL16BuildLookupTableERKNS0_11StringPieceEPb.exit, %.lr.ph, %_ZN4i18n12phonenumbersL16BuildLookupTableERKNS0_11StringPieceEPb.exit.preheader
  %.2 = phi i64 [ %.sroa.speculated, %_ZN4i18n12phonenumbersL16BuildLookupTableERKNS0_11StringPieceEPb.exit.preheader ], [ -1, %.lr.ph ], [ %37, %_ZN4i18n12phonenumbersL16BuildLookupTableERKNS0_11StringPieceEPb.exit ]
  call void @llvm.lifetime.end.p0(i64 256, ptr nonnull %4) #13
  br label %_ZNK4i18n12phonenumbers11StringPiece16find_last_not_ofEcm.exit

_ZNK4i18n12phonenumbers11StringPiece16find_last_not_ofEcm.exit: ; preds = %19, %.lr.ph.i, %12, %._crit_edge, %8, %3
  %.010 = phi i64 [ -1, %3 ], [ %.2, %._crit_edge ], [ %.sroa.speculated, %8 ], [ %.sroa.speculated, %12 ], [ %20, %19 ], [ -1, %.lr.ph.i ]
  ret i64 %.010
}